; Function Attrs: mustprogress nounwind uwtable
define hidden noundef ptr @_ZNK6hermes10SwitchInst12getSuccessorEj(ptr noundef nonnull align 8 dereferenceable(132) %this, i32 noundef %idx) local_unnamed_addr #0 align 2 {
entry:
  %cmp = icmp eq i32 %idx, 0
  br i1 %cmp, label %return, label %if.end

if.end:                                           ; preds = %entry
  %sub = shl i32 %idx, 1
  %call.i2 = tail call noundef ptr @_ZNK6hermes11Instruction10getOperandEj(ptr noundef nonnull align 8 dereferenceable(132) %this, i32 noundef %sub) #15
  %add4.i = or disjoint i32 %sub, 1
  br label %return

return:                                           ; preds = %entry, %if.end
  %add4.i.sink = phi i32 [ %add4.i, %if.end ], [ 1, %entry ]
  %call5.i = tail call noundef ptr @_ZNK6hermes11Instruction10getOperandEj(ptr noundef nonnull align 8 dereferenceable(132) %this, i32 noundef %add4.i.sink) #15
  %0 = icmp eq ptr %call5.i, null
  %sub.ptr.i.i.i3 = getelementptr inbounds i8, ptr %call5.i, i64 -16
  %1 = select i1 %0, ptr null, ptr %sub.ptr.i.i.i3
  ret ptr %1
}